target datalayout = "e-m:e-p270:32:32-p271:32:32-p272:64:64-i64:64-i128:128-f80:128-n8:16:32:64-S128"
target triple = "x86_64-pc-linux-gnu"

%"struct.folly::None" = type { i8 }
%"class.folly::Optional" = type { %"struct.folly::Optional<std::__cxx11::basic_string<char>>::StorageNonTriviallyDestructible" }
%"struct.folly::Optional<std::__cxx11::basic_string<char>>::StorageNonTriviallyDestructible" = type <{ %union.anon, i8, [7 x i8] }>
%union.anon = type { %"class.std::__cxx11::basic_string" }
%"class.std::__cxx11::basic_string" = type { %"struct.std::__cxx11::basic_string<char>::_Alloc_hider", i64, %union.anon.0 }
%"struct.std::__cxx11::basic_string<char>::_Alloc_hider" = type { ptr }
%union.anon.0 = type { i64, [8 x i8] }
%"class.std::thread::id" = type { i64 }

@_ZN5follyL4noneE = internal constant %"struct.folly::None" undef, align 1

; Function Attrs: noinline noreturn nounwind uwtable
define linkonce_odr hidden void @__clang_call_terminate(ptr noundef %0) #11 comdat {
  %2 = call ptr @__cxa_begin_catch(ptr %0) #18
  call void @_ZSt9terminatev() #20
  unreachable
}

; Function Attrs: mustprogress nounwind uwtable
define linkonce_odr void @_ZN5folly8OptionalINSt7__cxx1112basic_stringIcSt11char_traitsIcESaIcEEEE31StorageNonTriviallyDestructibleC2Ev(ptr noundef nonnull align 8 dereferenceable(33) %0) unnamed_addr #0 comdat align 2 {
  %2 = alloca ptr, align 8
  store ptr %0, ptr %2, align 8, !tbaa !45
  %3 = load ptr, ptr %2, align 8
  %4 = getelementptr inbounds nuw %"struct.folly::Optional<std::__cxx11::basic_string<char>>::StorageNonTriviallyDestructible", ptr %3, i32 0, i32 1
  store i8 0, ptr %4, align 8, !tbaa !47
  ret void
}

; Function Attrs: inlinehint mustprogress nounwind uwtable
define linkonce_odr noundef zeroext i1 @_ZSteqNSt6thread2idES0_(i64 %0, i64 %1) #2 comdat {
  %3 = alloca %"class.std::thread::id", align 8
  %4 = alloca %"class.std::thread::id", align 8
  %5 = getelementptr inbounds nuw %"class.std::thread::id", ptr %3, i32 0, i32 0
  store i64 %0, ptr %5, align 8
  %6 = getelementptr inbounds nuw %"class.std::thread::id", ptr %4, i32 0, i32 0
  store i64 %1, ptr %6, align 8
  %7 = getelementptr inbounds nuw %"class.std::thread::id", ptr %3, i32 0, i32 0
  %8 = load i64, ptr %7, align 8, !tbaa !15
  %9 = getelementptr inbounds nuw %"class.std::thread::id", ptr %4, i32 0, i32 0
  %10 = load i64, ptr %9, align 8, !tbaa !15
  %11 = icmp eq i64 %8, %10
  ret i1 %11
}

; Function Attrs: mustprogress nounwind uwtable
define linkonce_odr void @_ZN5folly8OptionalINSt7__cxx1112basic_stringIcSt11char_traitsIcESaIcEEEEC2ERKNS_4NoneE(ptr noundef nonnull align 8 dereferenceable(40) %0, ptr noundef nonnull align 1 dereferenceable(1) %1) unnamed_addr #0 comdat align 2 personality ptr @__gxx_personality_v0 {
  %3 = alloca ptr, align 8
  %4 = alloca ptr, align 8
  store ptr %0, ptr %3, align 8, !tbaa !17
  store ptr %1, ptr %4, align 8, !tbaa !19
  %5 = load ptr, ptr %3, align 8
  %6 = getelementptr inbounds nuw %"class.folly::Optional", ptr %5, i32 0, i32 0
  invoke void @_ZN5folly8OptionalINSt7__cxx1112basic_stringIcSt11char_traitsIcESaIcEEEE31StorageNonTriviallyDestructibleC2Ev(ptr noundef nonnull align 8 dereferenceable(33) %6)
          to label %7 unwind label %8

7:                                                ; preds = %2
  ret void

8:                                                ; preds = %2
  %9 = landingpad { ptr, i32 }
          catch ptr null
  %10 = extractvalue { ptr, i32 } %9, 0
  call void @__clang_call_terminate(ptr %10) #20
  unreachable
}

; Function Attrs: mustprogress nounwind uwtable
define internal noundef i64 @_ZN5folly12_GLOBAL__N_117stdTidToPthreadIdENSt6thread2idE(i64 %0) #0 {
  %2 = alloca %"class.std::thread::id", align 8
  %3 = alloca i64, align 8
  %4 = getelementptr inbounds nuw %"class.std::thread::id", ptr %2, i32 0, i32 0
  store i64 %0, ptr %4, align 8
  call void @llvm.lifetime.start.p0(i64 8, ptr %3) #18
  call void @llvm.memcpy.p0.p0.i64(ptr align 8 %3, ptr align 8 %2, i64 8, i1 false)
  %5 = load i64, ptr %3, align 8, !tbaa !8
  call void @llvm.lifetime.end.p0(i64 8, ptr %3) #18
  ret i64 %5
}

; Function Attrs: inlinehint mustprogress nounwind uwtable
define linkonce_odr noundef zeroext i1 @_ZStneNSt6thread2idES0_(i64 %0, i64 %1) #2 comdat {
  %3 = alloca %"class.std::thread::id", align 8
  %4 = alloca %"class.std::thread::id", align 8
  %5 = alloca %"class.std::thread::id", align 8
  %6 = alloca %"class.std::thread::id", align 8
  %7 = getelementptr inbounds nuw %"class.std::thread::id", ptr %3, i32 0, i32 0
  store i64 %0, ptr %7, align 8
  %8 = getelementptr inbounds nuw %"class.std::thread::id", ptr %4, i32 0, i32 0
  store i64 %1, ptr %8, align 8
  call void @llvm.memcpy.p0.p0.i64(ptr align 8 %5, ptr align 8 %3, i64 8, i1 false), !tbaa.struct !7
  call void @llvm.memcpy.p0.p0.i64(ptr align 8 %6, ptr align 8 %4, i64 8, i1 false), !tbaa.struct !7
  %9 = getelementptr inbounds nuw %"class.std::thread::id", ptr %5, i32 0, i32 0
  %10 = load i64, ptr %9, align 8
  %11 = getelementptr inbounds nuw %"class.std::thread::id", ptr %6, i32 0, i32 0
  %12 = load i64, ptr %11, align 8
  %13 = call noundef zeroext i1 @_ZSteqNSt6thread2idES0_(i64 %10, i64 %12) #18
  %14 = xor i1 %13, true
  ret i1 %14
}

; Function Attrs: mustprogress nounwind uwtable
define linkonce_odr void @_ZNSt6thread2idC2Ev(ptr noundef nonnull align 8 dereferenceable(8) %0) unnamed_addr #0 comdat align 2 {
  %2 = alloca ptr, align 8
  store ptr %0, ptr %2, align 8, !tbaa !12
  %3 = load ptr, ptr %2, align 8
  %4 = getelementptr inbounds nuw %"class.std::thread::id", ptr %3, i32 0, i32 0
  store i64 0, ptr %4, align 8, !tbaa !15
  ret void
}

; Function Attrs: mustprogress uwtable
define void @_ZN5folly13getThreadNameB5cxx11ENSt6thread2idE(ptr dead_on_unwind noalias writable sret(%"class.folly::Optional") align 8 %0, i64 %1) #1 {
  %3 = alloca ptr, align 8
  %4 = alloca %"class.std::thread::id", align 8
  %5 = alloca %"class.std::thread::id", align 8
  %6 = alloca %"class.std::thread::id", align 8
  %7 = alloca %"class.std::thread::id", align 8
  store ptr %0, ptr %3, align 8
  %8 = getelementptr inbounds nuw %"class.std::thread::id", ptr %4, i32 0, i32 0
  store i64 %1, ptr %8, align 8
  call void @llvm.memcpy.p0.p0.i64(ptr align 8 %5, ptr align 8 %4, i64 8, i1 false), !tbaa.struct !7
  call void @_ZNSt6thread2idC2Ev(ptr noundef nonnull align 8 dereferenceable(8) %6) #18
  %9 = getelementptr inbounds nuw %"class.std::thread::id", ptr %5, i32 0, i32 0
  %10 = load i64, ptr %9, align 8
  %11 = getelementptr inbounds nuw %"class.std::thread::id", ptr %6, i32 0, i32 0
  %12 = load i64, ptr %11, align 8
  %13 = call noundef zeroext i1 @_ZStneNSt6thread2idES0_(i64 %10, i64 %12) #18
  br i1 %13, label %14, label %18

14:                                               ; preds = %2
  call void @llvm.memcpy.p0.p0.i64(ptr align 8 %7, ptr align 8 %4, i64 8, i1 false), !tbaa.struct !7
  %15 = getelementptr inbounds nuw %"class.std::thread::id", ptr %7, i32 0, i32 0
  %16 = load i64, ptr %15, align 8
  %17 = call noundef i64 @_ZN5folly12_GLOBAL__N_117stdTidToPthreadIdENSt6thread2idE(i64 %16)
  call void @_ZN5follyL14getPThreadNameB5cxx11Em(ptr dead_on_unwind writable sret(%"class.folly::Optional") align 8 %0, i64 noundef %17)
  br label %19

18:                                               ; preds = %2
  call void @_ZN5folly8OptionalINSt7__cxx1112basic_stringIcSt11char_traitsIcESaIcEEEEC2ERKNS_4NoneE(ptr noundef nonnull align 8 dereferenceable(40) %0, ptr noundef nonnull align 1 dereferenceable(1) @_ZN5follyL4noneE) #18
  br label %19

19:                                               ; preds = %18, %14
  ret void
}