; Function Attrs: mustprogress uwtable
define void @_ZN5folly13getThreadNameB5cxx11ENSt6thread2idE(ptr dead_on_unwind noalias writable sret(%"class.folly::Optional") align 8 %0, i64 %1) local_unnamed_addr #1 personality ptr @__gxx_personality_v0 {
  %.not = icmp eq i64 %1, 0
  br i1 %.not, label %4, label %3

3:                                                ; preds = %2
  tail call fastcc void @_ZN5follyL14getPThreadNameB5cxx11Em(ptr dead_on_unwind noalias writable align 8 %0, i64 noundef %1)
  br label %6

4:                                                ; preds = %2
  %5 = getelementptr inbounds nuw i8, ptr %0, i64 32
  store i8 0, ptr %5, align 8, !tbaa !7
  br label %6

6:                                                ; preds = %4, %3
  ret void
}